; Function Attrs: mustprogress uwtable
define hidden noundef ptr @_ZN7bv_util18mk_bv_rotate_rightEP4exprj(ptr noundef nonnull readonly align 8 captures(none) dereferenceable(24) %0, ptr noundef %1, i32 noundef %2) local_unnamed_addr #3 align 2 personality ptr @__gxx_personality_v0 {
  %4 = alloca ptr, align 8
  %5 = alloca %class.parameter, align 8
  store ptr %1, ptr %4, align 8, !tbaa !159
  call void @llvm.lifetime.start.p0(i64 16, ptr nonnull %5) #24
  store i32 %2, ptr %5, align 8, !tbaa !115
  %6 = getelementptr inbounds nuw i8, ptr %5, i64 8
  store i8 0, ptr %6, align 8, !tbaa !117
  %7 = getelementptr inbounds nuw i8, ptr %0, i64 8
  %8 = load ptr, ptr %7, align 8, !tbaa !185
  %9 = load i32, ptr %0, align 8, !tbaa !179
  %10 = invoke noundef ptr @_ZN11ast_manager6mk_appEiijPK9parameterjPKP4exprP4sort(ptr noundef nonnull align 8 dereferenceable(976) %8, i32 noundef %9, i32 noundef 49, i32 noundef 1, ptr noundef nonnull %5, i32 noundef 1, ptr noundef nonnull %4, ptr noundef null)
          to label %11 unwind label %12

11:                                               ; preds = %3
  call void @_ZN9parameterD1Ev(ptr noundef nonnull align 8 dereferenceable(16) %5) #24
  call void @llvm.lifetime.end.p0(i64 16, ptr nonnull %5) #24
  ret ptr %10

12:                                               ; preds = %3
  %13 = landingpad { ptr, i32 }
          cleanup
  call void @_ZN9parameterD1Ev(ptr noundef nonnull align 8 dereferenceable(16) %5) #24
  call void @llvm.lifetime.end.p0(i64 16, ptr nonnull %5) #24
  resume { ptr, i32 } %13
}